target datalayout = "e-m:e-p270:32:32-p271:32:32-p272:64:64-i64:64-i128:128-f80:128-n8:16:32:64-S128"
target triple = "x86_64-unknown-linux-gnu"

%"class.datalog::entry_storage" = type { i32, i32, i64, %class.svector, %class.hashtable, i64 }
%class.svector = type { %class.vector }
%class.vector = type { ptr }
%class.hashtable = type { %class.core_hashtable.base, [4 x i8] }
%class.core_hashtable.base = type <{ %"class.datalog::entry_storage::offset_hash_proc.base", [4 x i8], %"class.datalog::entry_storage::offset_eq_proc.base", [4 x i8], ptr, i32, i32, i32 }>
%"class.datalog::entry_storage::offset_hash_proc.base" = type <{ ptr, i32 }>
%"class.datalog::entry_storage::offset_eq_proc.base" = type <{ ptr, i32 }>
%class.default_hash_entry.24 = type { i32, i32, i64 }
%"class.datalog::sparse_table::column_layout" = type <{ %class.svector.0, i32, i32, i32, [4 x i8] }>
%class.svector.0 = type { %class.vector.1 }
%class.vector.1 = type { ptr }
%"class.datalog::table_signature" = type <{ %"class.datalog::tr_infrastructure<datalog::table_traits>::signature_base", i32, [4 x i8] }>
%"class.datalog::tr_infrastructure<datalog::table_traits>::signature_base" = type { %class.svector.2 }
%class.svector.2 = type { %class.vector.3 }
%class.vector.3 = type { ptr }
%"class.datalog::sparse_table" = type { %"class.datalog::table_base.base", [4 x i8], %"class.datalog::sparse_table::column_layout", i32, %"class.datalog::entry_storage", %class.map }
%"class.datalog::table_base.base" = type { %"class.datalog::tr_infrastructure<datalog::table_traits>::base_ancestor.base" }
%"class.datalog::tr_infrastructure<datalog::table_traits>::base_ancestor.base" = type <{ ptr, ptr, %"class.datalog::table_signature", i32 }>
%class.map = type { %class.table2map }
%class.table2map = type { %class.core_hashtable.4 }
%class.core_hashtable.4 = type <{ ptr, i32, i32, i32, [4 x i8] }>
%"class.datalog::verbose_action" = type { i32, ptr }

@.str.1 = private unnamed_addr constant [9 x i8] c"add_fact\00", align 1

; Function Attrs: mustprogress nounwind uwtable
define linkonce_odr hidden noundef nonnull align 8 dereferenceable(8) ptr @_ZN18default_hash_entryImE8get_dataEv(ptr noundef nonnull align 8 dereferenceable(16) %this) #5 comdat align 2 {
entry:
  %this.addr = alloca ptr, align 8
  store ptr %this, ptr %this.addr, align 8
  %this1 = load ptr, ptr %this.addr, align 8
  %m_data = getelementptr inbounds %class.default_hash_entry.24, ptr %this1, i32 0, i32 2
  ret ptr %m_data
}

; Function Attrs: mustprogress uwtable
define linkonce_odr hidden noundef zeroext i1 @_ZN14core_hashtableI18default_hash_entryImEN7datalog13entry_storage16offset_hash_procENS3_14offset_eq_procEE24insert_if_not_there_coreERKmRPS1_(ptr noundef nonnull align 8 dereferenceable(52) %this, ptr noundef nonnull align 8 dereferenceable(8) %e, ptr noundef nonnull align 8 dereferenceable(8) %et) #4 comdat align 2 {
entry:
  %this.addr = alloca ptr, align 8
  %e.addr = alloca ptr, align 8
  %et.addr = alloca ptr, align 8
  %temp = alloca i64, align 8
  store ptr %this, ptr %this.addr, align 8
  store ptr %e, ptr %e.addr, align 8
  store ptr %et, ptr %et.addr, align 8
  %this1 = load ptr, ptr %this.addr, align 8
  %0 = load ptr, ptr %e.addr, align 8
  %1 = load i64, ptr %0, align 8
  store i64 %1, ptr %temp, align 8
  %2 = load ptr, ptr %et.addr, align 8
  %call = call noundef zeroext i1 @_ZN14core_hashtableI18default_hash_entryImEN7datalog13entry_storage16offset_hash_procENS3_14offset_eq_procEE24insert_if_not_there_coreEOmRPS1_(ptr noundef nonnull align 8 dereferenceable(52) %this1, ptr noundef nonnull align 8 dereferenceable(8) %temp, ptr noundef nonnull align 8 dereferenceable(8) %2)
  ret i1 %call
}

; Function Attrs: mustprogress uwtable
define linkonce_odr hidden noundef nonnull align 8 dereferenceable(8) ptr @_ZN14core_hashtableI18default_hash_entryImEN7datalog13entry_storage16offset_hash_procENS3_14offset_eq_procEE19insert_if_not_thereERKm(ptr noundef nonnull align 8 dereferenceable(52) %this, ptr noundef nonnull align 8 dereferenceable(8) %e) #4 comdat align 2 {
entry:
  %this.addr = alloca ptr, align 8
  %e.addr = alloca ptr, align 8
  %et = alloca ptr, align 8
  store ptr %this, ptr %this.addr, align 8
  store ptr %e, ptr %e.addr, align 8
  %this1 = load ptr, ptr %this.addr, align 8
  %0 = load ptr, ptr %e.addr, align 8
  %call = call noundef zeroext i1 @_ZN14core_hashtableI18default_hash_entryImEN7datalog13entry_storage16offset_hash_procENS3_14offset_eq_procEE24insert_if_not_there_coreERKmRPS1_(ptr noundef nonnull align 8 dereferenceable(52) %this1, ptr noundef nonnull align 8 dereferenceable(8) %0, ptr noundef nonnull align 8 dereferenceable(8) %et)
  %1 = load ptr, ptr %et, align 8
  %call2 = call noundef nonnull align 8 dereferenceable(8) ptr @_ZN18default_hash_entryImE8get_dataEv(ptr noundef nonnull align 8 dereferenceable(16) %1)
  ret ptr %call2
}

; Function Attrs: mustprogress nounwind uwtable
define linkonce_odr hidden noundef nonnull align 1 dereferenceable(1) ptr @_ZN6vectorIcLb0EmE3getEm(ptr noundef nonnull align 8 dereferenceable(8) %this, i64 noundef %idx) #5 comdat align 2 {
entry:
  %this.addr = alloca ptr, align 8
  %idx.addr = alloca i64, align 8
  store ptr %this, ptr %this.addr, align 8
  store i64 %idx, ptr %idx.addr, align 8
  %this1 = load ptr, ptr %this.addr, align 8
  %m_data = getelementptr inbounds %class.vector, ptr %this1, i32 0, i32 0
  %0 = load ptr, ptr %m_data, align 8
  %1 = load i64, ptr %idx.addr, align 8
  %arrayidx = getelementptr inbounds i8, ptr %0, i64 %1
  ret ptr %arrayidx
}

; Function Attrs: mustprogress nounwind uwtable
define linkonce_odr hidden noundef i64 @_ZNK7datalog13entry_storage7reserveEv(ptr noundef nonnull align 8 dereferenceable(88) %this) #5 comdat align 2 {
entry:
  %this.addr = alloca ptr, align 8
  store ptr %this, ptr %this.addr, align 8
  %this1 = load ptr, ptr %this.addr, align 8
  %m_reserve = getelementptr inbounds %"class.datalog::entry_storage", ptr %this1, i32 0, i32 5
  %0 = load i64, ptr %m_reserve, align 8
  ret i64 %0
}

; Function Attrs: mustprogress nounwind uwtable
define linkonce_odr hidden noundef zeroext i1 @_ZNK7datalog13entry_storage11has_reserveEv(ptr noundef nonnull align 8 dereferenceable(88) %this) #5 comdat align 2 {
entry:
  %this.addr = alloca ptr, align 8
  store ptr %this, ptr %this.addr, align 8
  %this1 = load ptr, ptr %this.addr, align 8
  %m_reserve = getelementptr inbounds %"class.datalog::entry_storage", ptr %this1, i32 0, i32 5
  %0 = load i64, ptr %m_reserve, align 8
  %cmp = icmp ne i64 %0, 4294967295
  ret i1 %cmp
}

; Function Attrs: mustprogress uwtable
define hidden noundef zeroext i1 @_ZN7datalog13entry_storage22insert_reserve_contentEv(ptr noundef nonnull align 8 dereferenceable(88) %this) #4 align 2 {
entry:
  %retval = alloca i1, align 1
  %this.addr = alloca ptr, align 8
  %entry_ofs = alloca i64, align 8
  store ptr %this, ptr %this.addr, align 8
  %this1 = load ptr, ptr %this.addr, align 8
  %m_data_indexer = getelementptr inbounds %"class.datalog::entry_storage", ptr %this1, i32 0, i32 4
  %m_reserve = getelementptr inbounds %"class.datalog::entry_storage", ptr %this1, i32 0, i32 5
  %call = call noundef nonnull align 8 dereferenceable(8) ptr @_ZN14core_hashtableI18default_hash_entryImEN7datalog13entry_storage16offset_hash_procENS3_14offset_eq_procEE19insert_if_not_thereERKm(ptr noundef nonnull align 8 dereferenceable(52) %m_data_indexer, ptr noundef nonnull align 8 dereferenceable(8) %m_reserve)
  %0 = load i64, ptr %call, align 8
  store i64 %0, ptr %entry_ofs, align 8
  %m_reserve2 = getelementptr inbounds %"class.datalog::entry_storage", ptr %this1, i32 0, i32 5
  %1 = load i64, ptr %m_reserve2, align 8
  %2 = load i64, ptr %entry_ofs, align 8
  %cmp = icmp eq i64 %1, %2
  br i1 %cmp, label %if.then, label %if.end

if.then:                                          ; preds = %entry
  %m_reserve3 = getelementptr inbounds %"class.datalog::entry_storage", ptr %this1, i32 0, i32 5
  store i64 4294967295, ptr %m_reserve3, align 8
  store i1 true, ptr %retval, align 1
  br label %return

if.end:                                           ; preds = %entry
  store i1 false, ptr %retval, align 1
  br label %return

return:                                           ; preds = %if.end, %if.then
  %3 = load i1, ptr %retval, align 1
  ret i1 %3
}

; Function Attrs: mustprogress uwtable
define linkonce_odr hidden noundef ptr @_ZN7datalog13entry_storage15get_reserve_ptrEv(ptr noundef nonnull align 8 dereferenceable(88) %this) #4 comdat align 2 {
entry:
  %this.addr = alloca ptr, align 8
  store ptr %this, ptr %this.addr, align 8
  %this1 = load ptr, ptr %this.addr, align 8
  %m_data = getelementptr inbounds %"class.datalog::entry_storage", ptr %this1, i32 0, i32 3
  %call = call noundef i64 @_ZNK7datalog13entry_storage7reserveEv(ptr noundef nonnull align 8 dereferenceable(88) %this1)
  %call2 = call noundef nonnull align 1 dereferenceable(1) ptr @_ZN6vectorIcLb0EmE3getEm(ptr noundef nonnull align 8 dereferenceable(8) %m_data, i64 noundef %call)
  ret ptr %call2
}

; Function Attrs: mustprogress uwtable
define linkonce_odr hidden void @_ZN7datalog13entry_storage14ensure_reserveEv(ptr noundef nonnull align 8 dereferenceable(88) %this) #4 comdat align 2 {
entry:
  %this.addr = alloca ptr, align 8
  store ptr %this, ptr %this.addr, align 8
  %this1 = load ptr, ptr %this.addr, align 8
  %call = call noundef zeroext i1 @_ZNK7datalog13entry_storage11has_reserveEv(ptr noundef nonnull align 8 dereferenceable(88) %this1)
  br i1 %call, label %if.then, label %if.end

if.then:                                          ; preds = %entry
  br label %return

if.end:                                           ; preds = %entry
  %m_data_size = getelementptr inbounds %"class.datalog::entry_storage", ptr %this1, i32 0, i32 2
  %0 = load i64, ptr %m_data_size, align 8
  %m_reserve = getelementptr inbounds %"class.datalog::entry_storage", ptr %this1, i32 0, i32 5
  store i64 %0, ptr %m_reserve, align 8
  %m_data_size2 = getelementptr inbounds %"class.datalog::entry_storage", ptr %this1, i32 0, i32 2
  %1 = load i64, ptr %m_data_size2, align 8
  %m_entry_size = getelementptr inbounds %"class.datalog::entry_storage", ptr %this1, i32 0, i32 0
  %2 = load i32, ptr %m_entry_size, align 8
  %conv = zext i32 %2 to i64
  %add = add i64 %1, %conv
  call void @_ZN7datalog13entry_storage11resize_dataEm(ptr noundef nonnull align 8 dereferenceable(88) %this1, i64 noundef %add)
  br label %return

return:                                           ; preds = %if.end, %if.then
  ret void
}

; Function Attrs: mustprogress uwtable
define hidden noundef zeroext i1 @_ZN7datalog12sparse_table19add_reserve_contentEv(ptr noundef nonnull align 8 dereferenceable(184) %this) #4 align 2 {
entry:
  %this.addr = alloca ptr, align 8
  store ptr %this, ptr %this.addr, align 8
  %this1 = load ptr, ptr %this.addr, align 8
  %m_data = getelementptr inbounds %"class.datalog::sparse_table", ptr %this1, i32 0, i32 4
  %call = call noundef zeroext i1 @_ZN7datalog13entry_storage22insert_reserve_contentEv(ptr noundef nonnull align 8 dereferenceable(88) %m_data)
  ret i1 %call
}

; Function Attrs: mustprogress uwtable
define linkonce_odr hidden void @_ZN7datalog13entry_storage18write_into_reserveEPKc(ptr noundef nonnull align 8 dereferenceable(88) %this, ptr noundef %data) #4 comdat align 2 {
entry:
  %this.addr = alloca ptr, align 8
  %data.addr = alloca ptr, align 8
  store ptr %this, ptr %this.addr, align 8
  store ptr %data, ptr %data.addr, align 8
  %this1 = load ptr, ptr %this.addr, align 8
  call void @_ZN7datalog13entry_storage14ensure_reserveEv(ptr noundef nonnull align 8 dereferenceable(88) %this1)
  %call = call noundef ptr @_ZN7datalog13entry_storage15get_reserve_ptrEv(ptr noundef nonnull align 8 dereferenceable(88) %this1)
  %0 = load ptr, ptr %data.addr, align 8
  %m_entry_size = getelementptr inbounds %"class.datalog::entry_storage", ptr %this1, i32 0, i32 0
  %1 = load i32, ptr %m_entry_size, align 8
  %conv = zext i32 %1 to i64
  call void @llvm.memcpy.p0.p0.i64(ptr align 1 %call, ptr align 1 %0, i64 %conv, i1 false)
  ret void
}

; Function Attrs: mustprogress uwtable
define hidden noundef zeroext i1 @_ZN7datalog12sparse_table8add_factEPKc(ptr noundef nonnull align 8 dereferenceable(184) %this, ptr noundef %data) #4 align 2 personality ptr @__gxx_personality_v0 {
entry:
  %this.addr = alloca ptr, align 8
  %data.addr = alloca ptr, align 8
  %_va = alloca %"class.datalog::verbose_action", align 8
  %exn.slot = alloca ptr, align 8
  %ehselector.slot = alloca i32, align 4
  store ptr %this, ptr %this.addr, align 8
  store ptr %data, ptr %data.addr, align 8
  %this1 = load ptr, ptr %this.addr, align 8
  call void @_ZN7datalog14verbose_actionC1EPKcj(ptr noundef nonnull align 8 dereferenceable(16) %_va, ptr noundef @.str.1, i32 noundef 10)
  %m_data = getelementptr inbounds %"class.datalog::sparse_table", ptr %this1, i32 0, i32 4
  %0 = load ptr, ptr %data.addr, align 8
  invoke void @_ZN7datalog13entry_storage18write_into_reserveEPKc(ptr noundef nonnull align 8 dereferenceable(88) %m_data, ptr noundef %0)
          to label %invoke.cont unwind label %lpad

invoke.cont:                                      ; preds = %entry
  %call = invoke noundef zeroext i1 @_ZN7datalog12sparse_table19add_reserve_contentEv(ptr noundef nonnull align 8 dereferenceable(184) %this1)
          to label %invoke.cont2 unwind label %lpad

invoke.cont2:                                     ; preds = %invoke.cont
  call void @_ZN7datalog14verbose_actionD1Ev(ptr noundef nonnull align 8 dereferenceable(16) %_va) #3
  ret i1 %call

lpad:                                             ; preds = %invoke.cont, %entry
  %1 = landingpad { ptr, i32 }
          cleanup
  %2 = extractvalue { ptr, i32 } %1, 0
  store ptr %2, ptr %exn.slot, align 8
  %3 = extractvalue { ptr, i32 } %1, 1
  store i32 %3, ptr %ehselector.slot, align 4
  call void @_ZN7datalog14verbose_actionD1Ev(ptr noundef nonnull align 8 dereferenceable(16) %_va) #3
  br label %eh.resume

eh.resume:                                        ; preds = %lpad
  %exn = load ptr, ptr %exn.slot, align 8
  %sel = load i32, ptr %ehselector.slot, align 4
  %lpad.val = insertvalue { ptr, i32 } poison, ptr %exn, 0
  %lpad.val3 = insertvalue { ptr, i32 } %lpad.val, i32 %sel, 1
  resume { ptr, i32 } %lpad.val3
}