; Function Attrs: mustprogress uwtable
define hidden noundef zeroext i1 @_ZN7datalog12sparse_table8add_factEPKc(ptr noundef nonnull align 8 dereferenceable(184) %this, ptr nocapture noundef readonly %data) local_unnamed_addr #3 align 2 personality ptr @__gxx_personality_v0 {
entry:
  %temp.i.i.i.i = alloca i64, align 8
  %et.i.i.i = alloca ptr, align 8
  %_va = alloca %"class.datalog::verbose_action", align 8
  call void @_ZN7datalog14verbose_actionC1EPKcj(ptr noundef nonnull align 8 dereferenceable(16) %_va, ptr noundef nonnull @.str.1, i32 noundef 10)
  %m_data = getelementptr inbounds i8, ptr %this, i64 72
  %m_reserve.i.i.i = getelementptr inbounds i8, ptr %this, i64 152
  %0 = load i64, ptr %m_reserve.i.i.i, align 8
  %cmp.i.not.i.i = icmp eq i64 %0, 4294967295
  br i1 %cmp.i.not.i.i, label %if.end.i.i, label %invoke.cont

if.end.i.i:                                       ; preds = %entry
  %m_data_size.i.i = getelementptr inbounds i8, ptr %this, i64 80
  %1 = load i64, ptr %m_data_size.i.i, align 8
  store i64 %1, ptr %m_reserve.i.i.i, align 8
  %2 = load i32, ptr %m_data, align 8
  %conv.i.i = zext i32 %2 to i64
  %add.i.i = add i64 %1, %conv.i.i
  invoke void @_ZN7datalog13entry_storage11resize_dataEm(ptr noundef nonnull align 8 dereferenceable(88) %m_data, i64 noundef %add.i.i)
          to label %.noexc unwind label %lpad

.noexc:                                           ; preds = %if.end.i.i
  %.pre.i = load i64, ptr %m_reserve.i.i.i, align 8
  br label %invoke.cont

invoke.cont:                                      ; preds = %.noexc, %entry
  %3 = phi i64 [ %0, %entry ], [ %.pre.i, %.noexc ]
  %m_data.i.i = getelementptr inbounds i8, ptr %this, i64 88
  %4 = load ptr, ptr %m_data.i.i, align 8
  %arrayidx.i.i.i = getelementptr inbounds i8, ptr %4, i64 %3
  %5 = load i32, ptr %m_data, align 8
  %conv.i = zext i32 %5 to i64
  call void @llvm.memcpy.p0.p0.i64(ptr align 1 %arrayidx.i.i.i, ptr align 1 %data, i64 %conv.i, i1 false)
  %m_data_indexer.i.i = getelementptr inbounds i8, ptr %this, i64 96
  call void @llvm.lifetime.start.p0(i64 8, ptr nonnull %et.i.i.i)
  call void @llvm.lifetime.start.p0(i64 8, ptr nonnull %temp.i.i.i.i)
  %6 = load i64, ptr %m_reserve.i.i.i, align 8
  store i64 %6, ptr %temp.i.i.i.i, align 8
  %call.i.i.i.i1 = invoke noundef zeroext i1 @_ZN14core_hashtableI18default_hash_entryImEN7datalog13entry_storage16offset_hash_procENS3_14offset_eq_procEE24insert_if_not_there_coreEOmRPS1_(ptr noundef nonnull align 8 dereferenceable(52) %m_data_indexer.i.i, ptr noundef nonnull align 8 dereferenceable(8) %temp.i.i.i.i, ptr noundef nonnull align 8 dereferenceable(8) %et.i.i.i)
          to label %call.i.i.i.i.noexc unwind label %lpad

call.i.i.i.i.noexc:                               ; preds = %invoke.cont
  call void @llvm.lifetime.end.p0(i64 8, ptr nonnull %temp.i.i.i.i)
  %7 = load ptr, ptr %et.i.i.i, align 8
  %m_data.i.i.i.i = getelementptr inbounds i8, ptr %7, i64 8
  call void @llvm.lifetime.end.p0(i64 8, ptr nonnull %et.i.i.i)
  %8 = load i64, ptr %m_data.i.i.i.i, align 8
  %9 = load i64, ptr %m_reserve.i.i.i, align 8
  %cmp.i.i = icmp eq i64 %9, %8
  br i1 %cmp.i.i, label %if.then.i.i, label %invoke.cont2

if.then.i.i:                                      ; preds = %call.i.i.i.i.noexc
  store i64 4294967295, ptr %m_reserve.i.i.i, align 8
  br label %invoke.cont2

invoke.cont2:                                     ; preds = %if.then.i.i, %call.i.i.i.i.noexc
  call void @_ZN7datalog14verbose_actionD1Ev(ptr noundef nonnull align 8 dereferenceable(16) %_va) #25
  ret i1 %cmp.i.i

lpad:                                             ; preds = %invoke.cont, %if.end.i.i
  %10 = landingpad { ptr, i32 }
          cleanup
  call void @_ZN7datalog14verbose_actionD1Ev(ptr noundef nonnull align 8 dereferenceable(16) %_va) #25
  resume { ptr, i32 } %10
}